target datalayout = "e-m:e-p270:32:32-p271:32:32-p272:64:64-i64:64-i128:128-f80:128-n8:16:32:64-S128"
target triple = "x86_64-unknown-linux-gnu"

%"class.std::basic_ostream" = type { ptr, %"class.std::basic_ios" }
%"class.std::basic_ios" = type { %"class.std::ios_base", ptr, i8, i8, ptr, ptr, ptr, ptr }
%"class.std::ios_base" = type { ptr, i64, i64, i32, i32, i32, ptr, %"struct.std::ios_base::_Words", [8 x %"struct.std::ios_base::_Words"], i32, ptr, %"class.std::locale" }
%"struct.std::ios_base::_Words" = type { ptr, i64 }
%"class.std::locale" = type { ptr }
%"class.std::__shared_count" = type { ptr }
%"struct.std::_Rb_tree_header" = type { %"struct.std::_Rb_tree_node_base", i64 }
%"struct.std::_Rb_tree_node_base" = type { i32, ptr, ptr, ptr }
%"class.std::function" = type { %"class.std::_Function_base", ptr }
%"class.std::_Function_base" = type { %"union.std::_Any_data", ptr }
%"union.std::_Any_data" = type { %"union.std::_Nocopy_types" }
%"union.std::_Nocopy_types" = type { { i64, i64 } }
%"class.std::vector" = type { %"struct.std::_Vector_base" }
%"struct.std::_Vector_base" = type { %"struct.std::_Vector_base<std::shared_ptr<const openvdb::v11_0::GridBase>, std::allocator<std::shared_ptr<const openvdb::v11_0::GridBase>>>::_Vector_impl" }
%"struct.std::_Vector_base<std::shared_ptr<const openvdb::v11_0::GridBase>, std::allocator<std::shared_ptr<const openvdb::v11_0::GridBase>>>::_Vector_impl" = type { %"struct.std::_Vector_base<std::shared_ptr<const openvdb::v11_0::GridBase>, std::allocator<std::shared_ptr<const openvdb::v11_0::GridBase>>>::_Vector_impl_data" }
%"struct.std::_Vector_base<std::shared_ptr<const openvdb::v11_0::GridBase>, std::allocator<std::shared_ptr<const openvdb::v11_0::GridBase>>>::_Vector_impl_data" = type { ptr, ptr, ptr }
%"class.openvdb::v11_0::io::(anonymous namespace)::OutputTask" = type { %"class.openvdb::v11_0::io::(anonymous namespace)::Task", %"class.std::vector", %"class.std::shared_ptr.28", %"class.openvdb::v11_0::MetaMap" }
%"class.openvdb::v11_0::io::(anonymous namespace)::Task" = type { ptr, i32, %"class.std::function" }
%"class.std::shared_ptr.28" = type { %"class.std::__shared_ptr.29" }
%"class.std::__shared_ptr.29" = type { ptr, %"class.std::__shared_count" }
%"class.openvdb::v11_0::MetaMap" = type { ptr, %"class.std::map.20" }
%"class.std::map.20" = type { %"class.std::_Rb_tree.21" }
%"class.std::_Rb_tree.21" = type { %"struct.std::_Rb_tree<std::__cxx11::basic_string<char>, std::pair<const std::__cxx11::basic_string<char>, std::shared_ptr<openvdb::v11_0::Metadata>>, std::_Select1st<std::pair<const std::__cxx11::basic_string<char>, std::shared_ptr<openvdb::v11_0::Metadata>>>, std::less<std::__cxx11::basic_string<char>>>::_Rb_tree_impl" }
%"struct.std::_Rb_tree<std::__cxx11::basic_string<char>, std::pair<const std::__cxx11::basic_string<char>, std::shared_ptr<openvdb::v11_0::Metadata>>, std::_Select1st<std::pair<const std::__cxx11::basic_string<char>, std::shared_ptr<openvdb::v11_0::Metadata>>>, std::less<std::__cxx11::basic_string<char>>>::_Rb_tree_impl" = type { %"struct.std::_Rb_tree_key_compare.25", %"struct.std::_Rb_tree_header" }
%"struct.std::_Rb_tree_key_compare.25" = type { %"struct.std::less.26" }
%"struct.std::less.26" = type { i8 }

@_ZSt4cerr = external global %"class.std::basic_ostream", align 8
@_ZTISt9exception = external constant ptr
@.str.9 = private unnamed_addr constant [8 x i8] c"ERROR: \00", align 1

; Function Attrs: mustprogress nounwind uwtable
define linkonce_odr noundef zeroext i1 @_ZNKSt14_Function_base8_M_emptyEv(ptr noundef nonnull align 8 dereferenceable(24) %this) #5 comdat align 2 {
entry:
  %this.addr = alloca ptr, align 8
  store ptr %this, ptr %this.addr, align 8
  %this1 = load ptr, ptr %this.addr, align 8
  %_M_manager = getelementptr inbounds %"class.std::_Function_base", ptr %this1, i32 0, i32 1
  %0 = load ptr, ptr %_M_manager, align 8
  %tobool = icmp ne ptr %0, null
  %lnot = xor i1 %tobool, true
  ret i1 %lnot
}

; Function Attrs: mustprogress nounwind uwtable
define linkonce_odr noundef ptr @_ZNKSt12__shared_ptrIN7openvdb5v11_02io7ArchiveELN9__gnu_cxx12_Lock_policyE2EE3getEv(ptr noundef nonnull align 8 dereferenceable(16) %this) #5 comdat align 2 {
entry:
  %this.addr = alloca ptr, align 8
  store ptr %this, ptr %this.addr, align 8
  %this1 = load ptr, ptr %this.addr, align 8
  %_M_ptr = getelementptr inbounds %"class.std::__shared_ptr.29", ptr %this1, i32 0, i32 0
  %0 = load ptr, ptr %_M_ptr, align 8
  ret ptr %0
}

; Function Attrs: mustprogress uwtable
define linkonce_odr void @_ZNKSt8functionIFvjN7openvdb5v11_02io5Queue6StatusEEEclEjS4_(ptr noundef nonnull align 8 dereferenceable(32) %this, i32 noundef %__args, i32 noundef %__args1) #4 comdat align 2 {
entry:
  %this.addr = alloca ptr, align 8
  %__args.addr = alloca i32, align 4
  %__args.addr2 = alloca i32, align 4
  store ptr %this, ptr %this.addr, align 8
  store i32 %__args, ptr %__args.addr, align 4
  store i32 %__args1, ptr %__args.addr2, align 4
  %this3 = load ptr, ptr %this.addr, align 8
  %call = call noundef zeroext i1 @_ZNKSt14_Function_base8_M_emptyEv(ptr noundef nonnull align 8 dereferenceable(24) %this3)
  br i1 %call, label %if.then, label %if.end

if.then:                                          ; preds = %entry
  call void @_ZSt25__throw_bad_function_callv() #20
  unreachable

if.end:                                           ; preds = %entry
  %_M_invoker = getelementptr inbounds %"class.std::function", ptr %this3, i32 0, i32 1
  %0 = load ptr, ptr %_M_invoker, align 8
  %_M_functor = getelementptr inbounds %"class.std::_Function_base", ptr %this3, i32 0, i32 0
  call void %0(ptr noundef nonnull align 8 dereferenceable(16) %_M_functor, ptr noundef nonnull align 4 dereferenceable(4) %__args.addr, ptr noundef nonnull align 4 dereferenceable(4) %__args.addr2)
  ret void
}

; Function Attrs: mustprogress nounwind uwtable
define internal noundef i32 @_ZNK7openvdb5v11_02io12_GLOBAL__N_14Task2idEv(ptr noundef nonnull align 8 dereferenceable(48) %this) #5 align 2 {
entry:
  %this.addr = alloca ptr, align 8
  store ptr %this, ptr %this.addr, align 8
  %this1 = load ptr, ptr %this.addr, align 8
  %mId = getelementptr inbounds %"class.openvdb::v11_0::io::(anonymous namespace)::Task", ptr %this1, i32 0, i32 1
  %0 = load i32, ptr %mId, align 8
  ret i32 %0
}

; Function Attrs: mustprogress nounwind uwtable
define linkonce_odr noundef zeroext i1 @_ZNKSt8functionIFvjN7openvdb5v11_02io5Queue6StatusEEEcvbEv(ptr noundef nonnull align 8 dereferenceable(32) %this) #5 comdat align 2 personality ptr @__gxx_personality_v0 {
entry:
  %this.addr = alloca ptr, align 8
  store ptr %this, ptr %this.addr, align 8
  %this1 = load ptr, ptr %this.addr, align 8
  %call = invoke noundef zeroext i1 @_ZNKSt14_Function_base8_M_emptyEv(ptr noundef nonnull align 8 dereferenceable(24) %this1)
          to label %invoke.cont unwind label %terminate.lpad

invoke.cont:                                      ; preds = %entry
  %lnot = xor i1 %call, true
  ret i1 %lnot

terminate.lpad:                                   ; preds = %entry
  %0 = landingpad { ptr, i32 }
          catch ptr null
  %1 = extractvalue { ptr, i32 } %0, 0
  call void @__clang_call_terminate(ptr %1) #21
  unreachable
}

; Function Attrs: mustprogress nounwind uwtable
define linkonce_odr noundef ptr @_ZNKSt19__shared_ptr_accessIN7openvdb5v11_02io7ArchiveELN9__gnu_cxx12_Lock_policyE2ELb0ELb0EE6_M_getEv(ptr noundef nonnull align 1 dereferenceable(1) %this) #5 comdat align 2 {
entry:
  %this.addr = alloca ptr, align 8
  store ptr %this, ptr %this.addr, align 8
  %this1 = load ptr, ptr %this.addr, align 8
  %call = call noundef ptr @_ZNKSt12__shared_ptrIN7openvdb5v11_02io7ArchiveELN9__gnu_cxx12_Lock_policyE2EE3getEv(ptr noundef nonnull align 8 dereferenceable(16) %this1) #3
  ret ptr %call
}

; Function Attrs: mustprogress uwtable
define internal void @_ZNK7openvdb5v11_02io12_GLOBAL__N_14Task6notifyENS1_5Queue6StatusE(ptr noundef nonnull align 8 dereferenceable(48) %this, i32 noundef %status) #4 align 2 {
entry:
  %this.addr = alloca ptr, align 8
  %status.addr = alloca i32, align 4
  store ptr %this, ptr %this.addr, align 8
  store i32 %status, ptr %status.addr, align 4
  %this1 = load ptr, ptr %this.addr, align 8
  %mNotify = getelementptr inbounds %"class.openvdb::v11_0::io::(anonymous namespace)::Task", ptr %this1, i32 0, i32 2
  %call = call noundef zeroext i1 @_ZNKSt8functionIFvjN7openvdb5v11_02io5Queue6StatusEEEcvbEv(ptr noundef nonnull align 8 dereferenceable(32) %mNotify) #3
  br i1 %call, label %if.then, label %if.end

if.then:                                          ; preds = %entry
  %mNotify2 = getelementptr inbounds %"class.openvdb::v11_0::io::(anonymous namespace)::Task", ptr %this1, i32 0, i32 2
  %call3 = call noundef i32 @_ZNK7openvdb5v11_02io12_GLOBAL__N_14Task2idEv(ptr noundef nonnull align 8 dereferenceable(48) %this1)
  %0 = load i32, ptr %status.addr, align 4
  call void @_ZNKSt8functionIFvjN7openvdb5v11_02io5Queue6StatusEEEclEjS4_(ptr noundef nonnull align 8 dereferenceable(32) %mNotify2, i32 noundef %call3, i32 noundef %0)
  br label %if.end

if.end:                                           ; preds = %if.then, %entry
  ret void
}

; Function Attrs: mustprogress nounwind uwtable
define linkonce_odr noundef ptr @_ZNKSt19__shared_ptr_accessIN7openvdb5v11_02io7ArchiveELN9__gnu_cxx12_Lock_policyE2ELb0ELb0EEptEv(ptr noundef nonnull align 1 dereferenceable(1) %this) #5 comdat align 2 {
entry:
  %this.addr = alloca ptr, align 8
  store ptr %this, ptr %this.addr, align 8
  %this1 = load ptr, ptr %this.addr, align 8
  %call = call noundef ptr @_ZNKSt19__shared_ptr_accessIN7openvdb5v11_02io7ArchiveELN9__gnu_cxx12_Lock_policyE2ELb0ELb0EE6_M_getEv(ptr noundef nonnull align 1 dereferenceable(1) %this1) #3
  ret ptr %call
}

; Function Attrs: mustprogress uwtable
define internal void @_ZNK7openvdb5v11_02io12_GLOBAL__N_110OutputTask7executeEv(ptr noundef nonnull align 8 dereferenceable(144) %this) unnamed_addr #4 align 2 personality ptr @__gxx_personality_v0 {
entry:
  %this.addr = alloca ptr, align 8
  %status = alloca i32, align 4
  %exn.slot = alloca ptr, align 8
  %ehselector.slot = alloca i32, align 4
  %e = alloca ptr, align 8
  %msg = alloca ptr, align 8
  store ptr %this, ptr %this.addr, align 8
  %this1 = load ptr, ptr %this.addr, align 8
  store i32 3, ptr %status, align 4
  %mArchive = getelementptr inbounds %"class.openvdb::v11_0::io::(anonymous namespace)::OutputTask", ptr %this1, i32 0, i32 2
  %call = call noundef ptr @_ZNKSt19__shared_ptr_accessIN7openvdb5v11_02io7ArchiveELN9__gnu_cxx12_Lock_policyE2ELb0ELb0EEptEv(ptr noundef nonnull align 1 dereferenceable(1) %mArchive) #3
  %mGrids = getelementptr inbounds %"class.openvdb::v11_0::io::(anonymous namespace)::OutputTask", ptr %this1, i32 0, i32 1
  %mMetadata = getelementptr inbounds %"class.openvdb::v11_0::io::(anonymous namespace)::OutputTask", ptr %this1, i32 0, i32 3
  %vtable = load ptr, ptr %call, align 8
  %vfn = getelementptr inbounds ptr, ptr %vtable, i64 3
  %0 = load ptr, ptr %vfn, align 8
  invoke void %0(ptr noundef nonnull align 8 dereferenceable(65) %call, ptr noundef nonnull align 8 dereferenceable(24) %mGrids, ptr noundef nonnull align 8 dereferenceable(56) %mMetadata)
          to label %invoke.cont unwind label %lpad

invoke.cont:                                      ; preds = %entry
  store i32 2, ptr %status, align 4
  br label %try.cont

lpad:                                             ; preds = %entry
  %1 = landingpad { ptr, i32 }
          catch ptr @_ZTISt9exception
          catch ptr null
  %2 = extractvalue { ptr, i32 } %1, 0
  store ptr %2, ptr %exn.slot, align 8
  %3 = extractvalue { ptr, i32 } %1, 1
  store i32 %3, ptr %ehselector.slot, align 4
  br label %catch.dispatch

catch.dispatch:                                   ; preds = %lpad
  %sel = load i32, ptr %ehselector.slot, align 4
  %4 = call i32 @llvm.eh.typeid.for(ptr @_ZTISt9exception) #3
  %matches = icmp eq i32 %sel, %4
  br i1 %matches, label %catch2, label %catch

catch2:                                           ; preds = %catch.dispatch
  %exn3 = load ptr, ptr %exn.slot, align 8
  %5 = call ptr @__cxa_begin_catch(ptr %exn3) #3
  store ptr %5, ptr %e, align 8
  %6 = load ptr, ptr %e, align 8
  %vtable4 = load ptr, ptr %6, align 8
  %vfn5 = getelementptr inbounds ptr, ptr %vtable4, i64 2
  %7 = load ptr, ptr %vfn5, align 8
  %call6 = call noundef ptr %7(ptr noundef nonnull align 8 dereferenceable(8) %6) #3
  store ptr %call6, ptr %msg, align 8
  %8 = load ptr, ptr %msg, align 8
  %tobool = icmp ne ptr %8, null
  br i1 %tobool, label %if.then, label %if.end

if.then:                                          ; preds = %catch2
  br label %do.body

do.body:                                          ; preds = %if.then
  %call9 = invoke noundef nonnull align 8 dereferenceable(8) ptr @_ZStlsISt11char_traitsIcEERSt13basic_ostreamIcT_ES5_PKc(ptr noundef nonnull align 8 dereferenceable(8) @_ZSt4cerr, ptr noundef @.str.9)
          to label %invoke.cont8 unwind label %lpad7

invoke.cont8:                                     ; preds = %do.body
  %9 = load ptr, ptr %msg, align 8
  %call11 = invoke noundef nonnull align 8 dereferenceable(8) ptr @_ZStlsISt11char_traitsIcEERSt13basic_ostreamIcT_ES5_PKc(ptr noundef nonnull align 8 dereferenceable(8) %call9, ptr noundef %9)
          to label %invoke.cont10 unwind label %lpad7

invoke.cont10:                                    ; preds = %invoke.cont8
  %call13 = invoke noundef nonnull align 8 dereferenceable(8) ptr @_ZNSolsEPFRSoS_E(ptr noundef nonnull align 8 dereferenceable(8) %call11, ptr noundef @_ZSt4endlIcSt11char_traitsIcEERSt13basic_ostreamIT_T0_ES6_)
          to label %invoke.cont12 unwind label %lpad7

invoke.cont12:                                    ; preds = %invoke.cont10
  br label %do.cond

do.cond:                                          ; preds = %invoke.cont12
  br label %do.end

do.end:                                           ; preds = %do.cond
  br label %if.end

catch:                                            ; preds = %catch.dispatch
  %exn = load ptr, ptr %exn.slot, align 8
  %10 = call ptr @__cxa_begin_catch(ptr %exn) #3
  call void @__cxa_end_catch()
  br label %try.cont

lpad7:                                            ; preds = %invoke.cont10, %invoke.cont8, %do.body
  %11 = landingpad { ptr, i32 }
          cleanup
  %12 = extractvalue { ptr, i32 } %11, 0
  store ptr %12, ptr %exn.slot, align 8
  %13 = extractvalue { ptr, i32 } %11, 1
  store i32 %13, ptr %ehselector.slot, align 4
  invoke void @__cxa_end_catch()
          to label %invoke.cont14 unwind label %terminate.lpad

if.end:                                           ; preds = %do.end, %catch2
  call void @__cxa_end_catch()
  br label %try.cont

try.cont:                                         ; preds = %if.end, %catch, %invoke.cont
  %14 = load i32, ptr %status, align 4
  call void @_ZNK7openvdb5v11_02io12_GLOBAL__N_14Task6notifyENS1_5Queue6StatusE(ptr noundef nonnull align 8 dereferenceable(48) %this1, i32 noundef %14)
  ret void

invoke.cont14:                                    ; preds = %lpad7
  br label %eh.resume

eh.resume:                                        ; preds = %invoke.cont14
  %exn15 = load ptr, ptr %exn.slot, align 8
  %sel16 = load i32, ptr %ehselector.slot, align 4
  %lpad.val = insertvalue { ptr, i32 } poison, ptr %exn15, 0
  %lpad.val17 = insertvalue { ptr, i32 } %lpad.val, i32 %sel16, 1
  resume { ptr, i32 } %lpad.val17

terminate.lpad:                                   ; preds = %lpad7
  %15 = landingpad { ptr, i32 }
          catch ptr null
  %16 = extractvalue { ptr, i32 } %15, 0
  call void @__clang_call_terminate(ptr %16) #21
  unreachable
}