; Function Attrs: mustprogress uwtable
define internal void @_ZNK7openvdb5v11_02io12_GLOBAL__N_110OutputTask7executeEv(ptr noundef nonnull align 8 dereferenceable(144) %this) unnamed_addr #5 align 2 personality ptr @__gxx_personality_v0 {
entry:
  %__args.addr.i.i = alloca i32, align 4
  %__args.addr2.i.i = alloca i32, align 4
  %mArchive = getelementptr inbounds i8, ptr %this, i64 72
  %0 = load ptr, ptr %mArchive, align 8
  %mGrids = getelementptr inbounds i8, ptr %this, i64 48
  %mMetadata = getelementptr inbounds i8, ptr %this, i64 88
  %vtable = load ptr, ptr %0, align 8
  %vfn = getelementptr inbounds i8, ptr %vtable, i64 24
  %1 = load ptr, ptr %vfn, align 8
  invoke void %1(ptr noundef nonnull align 8 dereferenceable(65) %0, ptr noundef nonnull align 8 dereferenceable(24) %mGrids, ptr noundef nonnull align 8 dereferenceable(56) %mMetadata)
          to label %try.cont unwind label %lpad

lpad:                                             ; preds = %entry
  %2 = landingpad { ptr, i32 }
          catch ptr @_ZTISt9exception
          catch ptr null
  %3 = extractvalue { ptr, i32 } %2, 0
  %4 = extractvalue { ptr, i32 } %2, 1
  %5 = tail call i32 @llvm.eh.typeid.for(ptr nonnull @_ZTISt9exception) #20
  %matches = icmp eq i32 %4, %5
  %6 = tail call ptr @__cxa_begin_catch(ptr %3) #20
  br i1 %matches, label %catch2, label %try.cont.sink.split

catch2:                                           ; preds = %lpad
  %vtable4 = load ptr, ptr %6, align 8
  %vfn5 = getelementptr inbounds i8, ptr %vtable4, i64 16
  %7 = load ptr, ptr %vfn5, align 8
  %call6 = tail call noundef ptr %7(ptr noundef nonnull align 8 dereferenceable(8) %6) #20
  %tobool.not = icmp eq ptr %call6, null
  br i1 %tobool.not, label %try.cont.sink.split, label %do.body

do.body:                                          ; preds = %catch2
  %call9 = invoke noundef nonnull align 8 dereferenceable(8) ptr @_ZStlsISt11char_traitsIcEERSt13basic_ostreamIcT_ES5_PKc(ptr noundef nonnull align 8 dereferenceable(8) @_ZSt4cerr, ptr noundef nonnull @.str.9)
          to label %invoke.cont8 unwind label %lpad7

invoke.cont8:                                     ; preds = %do.body
  %call11 = invoke noundef nonnull align 8 dereferenceable(8) ptr @_ZStlsISt11char_traitsIcEERSt13basic_ostreamIcT_ES5_PKc(ptr noundef nonnull align 8 dereferenceable(8) %call9, ptr noundef nonnull %call6)
          to label %invoke.cont10 unwind label %lpad7

invoke.cont10:                                    ; preds = %invoke.cont8
  %call13 = invoke noundef nonnull align 8 dereferenceable(8) ptr @_ZNSolsEPFRSoS_E(ptr noundef nonnull align 8 dereferenceable(8) %call11, ptr noundef nonnull @_ZSt4endlIcSt11char_traitsIcEERSt13basic_ostreamIT_T0_ES6_)
          to label %try.cont.sink.split unwind label %lpad7

lpad7:                                            ; preds = %invoke.cont10, %invoke.cont8, %do.body
  %8 = landingpad { ptr, i32 }
          cleanup
  invoke void @__cxa_end_catch()
          to label %eh.resume unwind label %terminate.lpad

try.cont.sink.split:                              ; preds = %catch2, %invoke.cont10, %lpad
  tail call void @__cxa_end_catch()
  br label %try.cont

try.cont:                                         ; preds = %try.cont.sink.split, %entry
  %status.0 = phi i32 [ 2, %entry ], [ 3, %try.cont.sink.split ]
  %_M_manager.i.i.i = getelementptr inbounds i8, ptr %this, i64 32
  %9 = load ptr, ptr %_M_manager.i.i.i, align 8
  %tobool.not.i.i.not.i = icmp eq ptr %9, null
  br i1 %tobool.not.i.i.not.i, label %_ZNK7openvdb5v11_02io12_GLOBAL__N_14Task6notifyENS1_5Queue6StatusE.exit, label %_ZNKSt8functionIFvjN7openvdb5v11_02io5Queue6StatusEEEclEjS4_.exit.i

_ZNKSt8functionIFvjN7openvdb5v11_02io5Queue6StatusEEEclEjS4_.exit.i: ; preds = %try.cont
  %mNotify.i = getelementptr inbounds i8, ptr %this, i64 16
  %10 = getelementptr inbounds i8, ptr %this, i64 8
  %this.val.i = load i32, ptr %10, align 8
  call void @llvm.lifetime.start.p0(i64 4, ptr nonnull %__args.addr.i.i)
  call void @llvm.lifetime.start.p0(i64 4, ptr nonnull %__args.addr2.i.i)
  store i32 %this.val.i, ptr %__args.addr.i.i, align 4
  store i32 %status.0, ptr %__args.addr2.i.i, align 4
  %_M_invoker.i.i = getelementptr inbounds i8, ptr %this, i64 40
  %11 = load ptr, ptr %_M_invoker.i.i, align 8
  call void %11(ptr noundef nonnull align 8 dereferenceable(16) %mNotify.i, ptr noundef nonnull align 4 dereferenceable(4) %__args.addr.i.i, ptr noundef nonnull align 4 dereferenceable(4) %__args.addr2.i.i)
  call void @llvm.lifetime.end.p0(i64 4, ptr nonnull %__args.addr.i.i)
  call void @llvm.lifetime.end.p0(i64 4, ptr nonnull %__args.addr2.i.i)
  br label %_ZNK7openvdb5v11_02io12_GLOBAL__N_14Task6notifyENS1_5Queue6StatusE.exit

_ZNK7openvdb5v11_02io12_GLOBAL__N_14Task6notifyENS1_5Queue6StatusE.exit: ; preds = %try.cont, %_ZNKSt8functionIFvjN7openvdb5v11_02io5Queue6StatusEEEclEjS4_.exit.i
  ret void

eh.resume:                                        ; preds = %lpad7
  resume { ptr, i32 } %8

terminate.lpad:                                   ; preds = %lpad7
  %12 = landingpad { ptr, i32 }
          catch ptr null
  %13 = extractvalue { ptr, i32 } %12, 0
  tail call void @__clang_call_terminate(ptr %13) #28
  unreachable
}